target datalayout = "e-m:e-p270:32:32-p271:32:32-p272:64:64-i64:64-i128:128-f80:128-n8:16:32:64-S128"
target triple = "x86_64-pc-linux-gnu"

%struct.dt_masks_point_path_t = type { [2 x float], [2 x float], [2 x float], [2 x float], i32 }
%struct.dt_masks_form_t = type { ptr, i32, ptr, [2 x float], [128 x i8], i32, i32 }
%struct._GList = type { ptr, ptr, ptr }

; Function Attrs: inlinehint nounwind uwtable
define internal ptr @g_list_next_wraparound(ptr noundef %0, ptr noundef %1) #3 {
  %3 = alloca ptr, align 8
  %4 = alloca ptr, align 8
  store ptr %0, ptr %3, align 8, !tbaa !41
  store ptr %1, ptr %4, align 8, !tbaa !41
  %5 = load ptr, ptr %3, align 8, !tbaa !41
  %6 = icmp ne ptr %5, null
  br i1 %6, label %7, label %12

7:                                                ; preds = %2
  %8 = load ptr, ptr %3, align 8, !tbaa !41
  %9 = getelementptr inbounds nuw %struct._GList, ptr %8, i32 0, i32 1
  %10 = load ptr, ptr %9, align 8, !tbaa !44
  %11 = icmp ne ptr %10, null
  br i1 %11, label %13, label %23

12:                                               ; preds = %2
  br i1 false, label %13, label %23

13:                                               ; preds = %12, %7
  %14 = load ptr, ptr %3, align 8, !tbaa !41
  %15 = icmp ne ptr %14, null
  br i1 %15, label %16, label %20

16:                                               ; preds = %13
  %17 = load ptr, ptr %3, align 8, !tbaa !41
  %18 = getelementptr inbounds nuw %struct._GList, ptr %17, i32 0, i32 1
  %19 = load ptr, ptr %18, align 8, !tbaa !44
  br label %21

20:                                               ; preds = %13
  br label %21

21:                                               ; preds = %20, %16
  %22 = phi ptr [ %19, %16 ], [ null, %20 ]
  br label %25

23:                                               ; preds = %12, %7
  %24 = load ptr, ptr %4, align 8, !tbaa !41
  br label %25

25:                                               ; preds = %23, %21
  %26 = phi ptr [ %22, %21 ], [ %24, %23 ]
  ret ptr %26
}

; Function Attrs: inlinehint nounwind uwtable
define internal i32 @g_list_shorter_than(ptr noundef %0, i32 noundef %1) #3 {
  %3 = alloca i32, align 4
  %4 = alloca ptr, align 8
  %5 = alloca i32, align 4
  store ptr %0, ptr %4, align 8, !tbaa !41
  store i32 %1, ptr %5, align 4, !tbaa !13
  br label %6

6:                                                ; preds = %22, %2
  %7 = load i32, ptr %5, align 4, !tbaa !13
  %8 = add i32 %7, -1
  store i32 %8, ptr %5, align 4, !tbaa !13
  %9 = icmp ugt i32 %7, 0
  br i1 %9, label %10, label %24

10:                                               ; preds = %6
  %11 = load ptr, ptr %4, align 8, !tbaa !41
  %12 = icmp ne ptr %11, null
  br i1 %12, label %14, label %13

13:                                               ; preds = %10
  store i32 1, ptr %3, align 4
  br label %25

14:                                               ; preds = %10
  %15 = load ptr, ptr %4, align 8, !tbaa !41
  %16 = icmp ne ptr %15, null
  br i1 %16, label %17, label %21

17:                                               ; preds = %14
  %18 = load ptr, ptr %4, align 8, !tbaa !41
  %19 = getelementptr inbounds nuw %struct._GList, ptr %18, i32 0, i32 1
  %20 = load ptr, ptr %19, align 8, !tbaa !44
  br label %22

21:                                               ; preds = %14
  br label %22

22:                                               ; preds = %21, %17
  %23 = phi ptr [ %20, %17 ], [ null, %21 ]
  store ptr %23, ptr %4, align 8, !tbaa !41
  br label %6

24:                                               ; preds = %6
  store i32 0, ptr %3, align 4
  br label %25

25:                                               ; preds = %24, %13
  %26 = load i32, ptr %3, align 4
  ret i32 %26
}

; Function Attrs: nounwind uwtable
define internal i32 @_path_is_clockwise(ptr noundef %0) #0 {
  %2 = alloca i32, align 4
  %3 = alloca ptr, align 8
  %4 = alloca float, align 4
  %5 = alloca ptr, align 8
  %6 = alloca ptr, align 8
  %7 = alloca ptr, align 8
  %8 = alloca ptr, align 8
  store ptr %0, ptr %3, align 8, !tbaa !17
  %9 = load ptr, ptr %3, align 8, !tbaa !17
  %10 = getelementptr inbounds nuw %struct.dt_masks_form_t, ptr %9, i32 0, i32 0
  %11 = load ptr, ptr %10, align 8, !tbaa !32
  %12 = call i32 @g_list_shorter_than(ptr noundef %11, i32 noundef 3)
  %13 = icmp ne i32 %12, 0
  br i1 %13, label %69, label %14

14:                                               ; preds = %1
  call void @llvm.lifetime.start.p0(i64 4, ptr %4) #13
  store float 0.000000e+00, ptr %4, align 4, !tbaa !11
  call void @llvm.lifetime.start.p0(i64 8, ptr %5) #13
  %15 = load ptr, ptr %3, align 8, !tbaa !17
  %16 = getelementptr inbounds nuw %struct.dt_masks_form_t, ptr %15, i32 0, i32 0
  %17 = load ptr, ptr %16, align 8, !tbaa !32
  store ptr %17, ptr %5, align 8, !tbaa !41
  br label %18

18:                                               ; preds = %63, %14
  %19 = load ptr, ptr %5, align 8, !tbaa !41
  %20 = icmp ne ptr %19, null
  br i1 %20, label %22, label %21

21:                                               ; preds = %18
  call void @llvm.lifetime.end.p0(i64 8, ptr %5) #13
  br label %65

22:                                               ; preds = %18
  call void @llvm.lifetime.start.p0(i64 8, ptr %6) #13
  %23 = load ptr, ptr %5, align 8, !tbaa !41
  %24 = load ptr, ptr %3, align 8, !tbaa !17
  %25 = getelementptr inbounds nuw %struct.dt_masks_form_t, ptr %24, i32 0, i32 0
  %26 = load ptr, ptr %25, align 8, !tbaa !32
  %27 = call ptr @g_list_next_wraparound(ptr noundef %23, ptr noundef %26)
  store ptr %27, ptr %6, align 8, !tbaa !41
  call void @llvm.lifetime.start.p0(i64 8, ptr %7) #13
  %28 = load ptr, ptr %5, align 8, !tbaa !41
  %29 = getelementptr inbounds nuw %struct._GList, ptr %28, i32 0, i32 0
  %30 = load ptr, ptr %29, align 8, !tbaa !42
  store ptr %30, ptr %7, align 8, !tbaa !6
  call void @llvm.lifetime.start.p0(i64 8, ptr %8) #13
  %31 = load ptr, ptr %6, align 8, !tbaa !41
  %32 = getelementptr inbounds nuw %struct._GList, ptr %31, i32 0, i32 0
  %33 = load ptr, ptr %32, align 8, !tbaa !42
  store ptr %33, ptr %8, align 8, !tbaa !6
  %34 = load ptr, ptr %8, align 8, !tbaa !6
  %35 = getelementptr inbounds nuw %struct.dt_masks_point_path_t, ptr %34, i32 0, i32 0
  %36 = getelementptr inbounds [2 x float], ptr %35, i64 0, i64 0
  %37 = load float, ptr %36, align 4, !tbaa !11
  %38 = load ptr, ptr %7, align 8, !tbaa !6
  %39 = getelementptr inbounds nuw %struct.dt_masks_point_path_t, ptr %38, i32 0, i32 0
  %40 = getelementptr inbounds [2 x float], ptr %39, i64 0, i64 0
  %41 = load float, ptr %40, align 4, !tbaa !11
  %42 = fsub reassoc nsz arcp contract afn float %37, %41
  %43 = load ptr, ptr %8, align 8, !tbaa !6
  %44 = getelementptr inbounds nuw %struct.dt_masks_point_path_t, ptr %43, i32 0, i32 0
  %45 = getelementptr inbounds [2 x float], ptr %44, i64 0, i64 1
  %46 = load float, ptr %45, align 4, !tbaa !11
  %47 = load ptr, ptr %7, align 8, !tbaa !6
  %48 = getelementptr inbounds nuw %struct.dt_masks_point_path_t, ptr %47, i32 0, i32 0
  %49 = getelementptr inbounds [2 x float], ptr %48, i64 0, i64 1
  %50 = load float, ptr %49, align 4, !tbaa !11
  %51 = fadd reassoc nsz arcp contract afn float %46, %50
  %52 = fmul reassoc nsz arcp contract afn float %42, %51
  %53 = load float, ptr %4, align 4, !tbaa !11
  %54 = fadd reassoc nsz arcp contract afn float %53, %52
  store float %54, ptr %4, align 4, !tbaa !11
  call void @llvm.lifetime.end.p0(i64 8, ptr %8) #13
  call void @llvm.lifetime.end.p0(i64 8, ptr %7) #13
  call void @llvm.lifetime.end.p0(i64 8, ptr %6) #13
  br label %55

55:                                               ; preds = %22
  %56 = load ptr, ptr %5, align 8, !tbaa !41
  %57 = icmp ne ptr %56, null
  br i1 %57, label %58, label %62

58:                                               ; preds = %55
  %59 = load ptr, ptr %5, align 8, !tbaa !41
  %60 = getelementptr inbounds nuw %struct._GList, ptr %59, i32 0, i32 1
  %61 = load ptr, ptr %60, align 8, !tbaa !44
  br label %63

62:                                               ; preds = %55
  br label %63

63:                                               ; preds = %62, %58
  %64 = phi ptr [ %61, %58 ], [ null, %62 ]
  store ptr %64, ptr %5, align 8, !tbaa !41
  br label %18

65:                                               ; preds = %21
  %66 = load float, ptr %4, align 4, !tbaa !11
  %67 = fcmp reassoc nsz arcp contract afn olt float %66, 0.000000e+00
  %68 = zext i1 %67 to i32
  store i32 %68, ptr %2, align 4
  call void @llvm.lifetime.end.p0(i64 4, ptr %4) #13
  br label %70

69:                                               ; preds = %1
  store i32 1, ptr %2, align 4
  br label %70

70:                                               ; preds = %69, %65
  %71 = load i32, ptr %2, align 4
  ret i32 %71
}