; Function Attrs: nofree norecurse nosync nounwind memory(read, inaccessiblemem: none) uwtable
define internal fastcc range(i32 0, 2) i32 @_path_is_clockwise(ptr noundef readonly captures(none) %0) unnamed_addr #12 {
  %2 = load ptr, ptr %0, align 8, !tbaa !18
  br label %3

3:                                                ; preds = %4, %1
  %.in.i = phi i32 [ 3, %1 ], [ %5, %4 ]
  %.047.i = phi ptr [ %2, %1 ], [ %7, %4 ]
  %.not6.i = icmp eq ptr %.047.i, null
  br i1 %.not6.i, label %g_list_shorter_than.exit.thread, label %4

4:                                                ; preds = %3
  %5 = add nsw i32 %.in.i, -1
  %6 = getelementptr inbounds nuw i8, ptr %.047.i, i64 8
  %7 = load ptr, ptr %6, align 8, !tbaa !27
  %.not.i = icmp eq i32 %5, 0
  br i1 %.not.i, label %g_list_shorter_than.exit.preheader, label %3

g_list_shorter_than.exit.preheader:               ; preds = %4
  %.not1723 = icmp eq ptr %2, null
  br i1 %.not1723, label %g_list_shorter_than.exit.thread, label %g_list_next_wraparound.exit

g_list_shorter_than.exit._crit_edge.loopexit:     ; preds = %g_list_next_wraparound.exit
  %8 = fcmp reassoc nsz arcp contract afn olt float %23, 0.000000e+00
  %9 = zext i1 %8 to i32
  br label %g_list_shorter_than.exit.thread

g_list_next_wraparound.exit:                      ; preds = %g_list_shorter_than.exit.preheader, %g_list_next_wraparound.exit
  %.01625 = phi ptr [ %11, %g_list_next_wraparound.exit ], [ %2, %g_list_shorter_than.exit.preheader ]
  %.01524 = phi float [ %23, %g_list_next_wraparound.exit ], [ 0.000000e+00, %g_list_shorter_than.exit.preheader ]
  %10 = getelementptr inbounds nuw i8, ptr %.01625, i64 8
  %11 = load ptr, ptr %10, align 8, !tbaa !27
  %.not6.i19 = icmp eq ptr %11, null
  %spec.select = select i1 %.not6.i19, ptr %2, ptr %11
  %12 = load ptr, ptr %.01625, align 8, !tbaa !29
  %13 = load ptr, ptr %spec.select, align 8, !tbaa !29
  %14 = load float, ptr %13, align 4, !tbaa !6
  %15 = load float, ptr %12, align 4, !tbaa !6
  %16 = fsub reassoc nsz arcp contract afn float %14, %15
  %17 = getelementptr inbounds nuw i8, ptr %13, i64 4
  %18 = load float, ptr %17, align 4, !tbaa !6
  %19 = getelementptr inbounds nuw i8, ptr %12, i64 4
  %20 = load float, ptr %19, align 4, !tbaa !6
  %21 = fadd reassoc nsz arcp contract afn float %20, %18
  %22 = fmul reassoc nsz arcp contract afn float %21, %16
  %23 = fadd reassoc nsz arcp contract afn float %22, %.01524
  br i1 %.not6.i19, label %g_list_shorter_than.exit._crit_edge.loopexit, label %g_list_next_wraparound.exit

g_list_shorter_than.exit.thread:                  ; preds = %3, %g_list_shorter_than.exit.preheader, %g_list_shorter_than.exit._crit_edge.loopexit
  %.0 = phi i32 [ 0, %g_list_shorter_than.exit.preheader ], [ %9, %g_list_shorter_than.exit._crit_edge.loopexit ], [ 1, %3 ]
  ret i32 %.0
}